; Function Attrs: nounwind uwtable
define dso_local ptr @PyDescr_NewWrapper(ptr noundef %0, ptr noundef %1, ptr noundef %2) local_unnamed_addr #0 {
  %4 = load ptr, ptr %1, align 8, !tbaa !59
  %5 = tail call ptr @PyType_GenericAlloc(ptr noundef nonnull @PyWrapperDescr_Type, i64 noundef 0) #9
  %.not.i = icmp eq ptr %5, null
  br i1 %.not.i, label %descr_new.exit.thread, label %6

6:                                                ; preds = %3
  tail call void @_PyObject_SetDeferredRefcount(ptr noundef nonnull %5) #9
  %.not.i.i.i = icmp eq ptr %0, null
  br i1 %.not.i.i.i, label %_Py_XNewRef.exit.i, label %7

7:                                                ; preds = %6
  %8 = load i32, ptr %0, align 8, !tbaa !16
  %9 = icmp slt i32 %8, 0
  br i1 %9, label %_Py_XNewRef.exit.i, label %10

10:                                               ; preds = %7
  %11 = add nuw i32 %8, 1
  store i32 %11, ptr %0, align 8, !tbaa !16
  br label %_Py_XNewRef.exit.i

_Py_XNewRef.exit.i:                               ; preds = %10, %7, %6
  %12 = getelementptr inbounds nuw i8, ptr %5, i64 16
  store ptr %0, ptr %12, align 8, !tbaa !10
  %13 = tail call ptr @PyUnicode_InternFromString(ptr noundef %4) #9
  %14 = getelementptr inbounds nuw i8, ptr %5, i64 24
  store ptr %13, ptr %14, align 8, !tbaa !17
  %15 = icmp eq ptr %13, null
  br i1 %15, label %16, label %22

16:                                               ; preds = %_Py_XNewRef.exit.i
  %17 = load i32, ptr %5, align 8, !tbaa !16
  %.not.i.i = icmp sgt i32 %17, -1
  br i1 %.not.i.i, label %18, label %descr_new.exit.thread

18:                                               ; preds = %16
  %19 = add nsw i32 %17, -1
  store i32 %19, ptr %5, align 8, !tbaa !16
  %20 = icmp eq i32 %19, 0
  br i1 %20, label %21, label %descr_new.exit.thread

21:                                               ; preds = %18
  tail call void @_Py_Dealloc(ptr noundef nonnull %5) #9
  br label %descr_new.exit.thread

22:                                               ; preds = %_Py_XNewRef.exit.i
  %23 = getelementptr inbounds nuw i8, ptr %5, i64 32
  store ptr null, ptr %23, align 8, !tbaa !18
  %24 = getelementptr inbounds nuw i8, ptr %5, i64 40
  store ptr %1, ptr %24, align 8, !tbaa !48
  %25 = getelementptr inbounds nuw i8, ptr %5, i64 48
  store ptr %2, ptr %25, align 8, !tbaa !54
  br label %descr_new.exit.thread

descr_new.exit.thread:                            ; preds = %21, %18, %16, %3, %22
  %.0.i10 = phi ptr [ %5, %22 ], [ null, %3 ], [ null, %16 ], [ null, %18 ], [ null, %21 ]
  ret ptr %.0.i10
}